target datalayout = "e-m:e-p270:32:32-p271:32:32-p272:64:64-i64:64-i128:128-f80:128-n8:16:32:64-S128"
target triple = "x86_64-pc-linux-gnu"

%"class.std::__cxx11::basic_string" = type { %"struct.std::__cxx11::basic_string<char>::_Alloc_hider", i64, %union.anon }
%"struct.std::__cxx11::basic_string<char>::_Alloc_hider" = type { ptr }
%union.anon = type { i64, [8 x i8] }
%"class.std::allocator" = type { i8 }
%"class.nlohmann::basic_json" = type { i8, %"union.nlohmann::basic_json<>::json_value" }
%"union.nlohmann::basic_json<>::json_value" = type { ptr }

@_ZTIN16DeformationModel16ParsingExceptionE = hidden constant { ptr, ptr, ptr } { ptr getelementptr inbounds (ptr, ptr @_ZTVN10__cxxabiv120__si_class_type_infoE, i64 2), ptr @_ZTSN16DeformationModel16ParsingExceptionE, ptr @_ZTISt9exception }, align 8
@.str.115 = private unnamed_addr constant [10 x i8] c"Missing \22\00", align 1
@.str.116 = private unnamed_addr constant [6 x i8] c"\22 key\00", align 1
@.str.117 = private unnamed_addr constant [15 x i8] c"The value of \22\00", align 1
@.str.134 = private unnamed_addr constant [21 x i8] c"\22 should be a object\00", align 1

; Function Attrs: mustprogress nounwind uwtable
define linkonce_odr hidden noundef zeroext i1 @_ZNK8nlohmann10basic_jsonISt3mapSt6vectorNSt7__cxx1112basic_stringIcSt11char_traitsIcESaIcEEEblmdSaNS_14adl_serializerES2_IhSaIhEEE9is_objectEv(ptr noundef nonnull align 8 dereferenceable(16) %0) #0 comdat align 2 {
  %2 = alloca ptr, align 8
  store ptr %0, ptr %2, align 8
  %3 = load ptr, ptr %2, align 8
  %4 = getelementptr inbounds %"class.nlohmann::basic_json", ptr %3, i32 0, i32 0
  %5 = load i8, ptr %4, align 8
  %6 = icmp eq i8 %5, 1
  ret i1 %6
}

; Function Attrs: mustprogress uwtable
define linkonce_odr void @_ZStplIcSt11char_traitsIcESaIcEENSt7__cxx1112basic_stringIT_T0_T1_EEOS8_PKS5_(ptr dead_on_unwind noalias writable sret(%"class.std::__cxx11::basic_string") align 8 %0, ptr noundef nonnull align 8 dereferenceable(32) %1, ptr noundef %2) #6 comdat {
  %4 = alloca ptr, align 8
  %5 = alloca ptr, align 8
  %6 = alloca ptr, align 8
  store ptr %0, ptr %4, align 8
  store ptr %1, ptr %5, align 8
  store ptr %2, ptr %6, align 8
  %7 = load ptr, ptr %5, align 8
  %8 = load ptr, ptr %6, align 8
  %9 = call noundef nonnull align 8 dereferenceable(32) ptr @_ZNSt7__cxx1112basic_stringIcSt11char_traitsIcESaIcEE6appendEPKc(ptr noundef nonnull align 8 dereferenceable(32) %7, ptr noundef %8)
  call void @_ZNSt7__cxx1112basic_stringIcSt11char_traitsIcESaIcEEC1EOS4_(ptr noundef nonnull align 8 dereferenceable(32) %0, ptr noundef nonnull align 8 dereferenceable(32) %9) #5
  ret void
}

; Function Attrs: mustprogress uwtable
define internal void @_ZN16DeformationModelL15getObjectMemberERKN8nlohmann10basic_jsonISt3mapSt6vectorNSt7__cxx1112basic_stringIcSt11char_traitsIcESaIcEEEblmdSaNS0_14adl_serializerES3_IhSaIhEEEEPKc(ptr dead_on_unwind noalias writable sret(%"class.nlohmann::basic_json") align 8 %0, ptr noundef nonnull align 8 dereferenceable(16) %1, ptr noundef %2) #6 personality ptr @__gxx_personality_v0 {
  %4 = alloca ptr, align 8
  %5 = alloca ptr, align 8
  %6 = alloca ptr, align 8
  %7 = alloca %"class.std::__cxx11::basic_string", align 8
  %8 = alloca %"class.std::__cxx11::basic_string", align 8
  %9 = alloca %"class.std::__cxx11::basic_string", align 8
  %10 = alloca %"class.std::allocator", align 1
  %11 = alloca ptr, align 8
  %12 = alloca i32, align 4
  %13 = alloca i1, align 1
  %14 = alloca i1, align 1
  %15 = alloca %"class.std::__cxx11::basic_string", align 8
  %16 = alloca %"class.std::__cxx11::basic_string", align 8
  %17 = alloca %"class.std::__cxx11::basic_string", align 8
  %18 = alloca %"class.std::allocator", align 1
  %19 = alloca i1, align 1
  store ptr %0, ptr %4, align 8
  store ptr %1, ptr %5, align 8
  store ptr %2, ptr %6, align 8
  %20 = load ptr, ptr %5, align 8
  %21 = call noundef zeroext i1 @_ZNK8nlohmann10basic_jsonISt3mapSt6vectorNSt7__cxx1112basic_stringIcSt11char_traitsIcESaIcEEEblmdSaNS_14adl_serializerES2_IhSaIhEEE8containsIRPKcTnNSt9enable_ifIXntsr3std7is_sameINSt5decayIT_E4typeENS_12json_pointerISC_EEEE5valueEiE4typeELi0EEEbOSJ_(ptr noundef nonnull align 8 dereferenceable(16) %20, ptr noundef nonnull align 8 dereferenceable(8) %6)
  br i1 %21, label %51, label %22

22:                                               ; preds = %3
  store i1 true, ptr %13, align 1
  %23 = call ptr @__cxa_allocate_exception(i64 40) #5
  call void @_ZNSaIcEC1Ev(ptr noundef nonnull align 1 dereferenceable(1) %10) #5
  invoke void @_ZNSt7__cxx1112basic_stringIcSt11char_traitsIcESaIcEEC1EPKcRKS3_(ptr noundef nonnull align 8 dereferenceable(32) %9, ptr noundef @.str.115, ptr noundef nonnull align 1 dereferenceable(1) %10)
          to label %24 unwind label %29

24:                                               ; preds = %22
  %25 = load ptr, ptr %6, align 8
  invoke void @_ZStplIcSt11char_traitsIcESaIcEENSt7__cxx1112basic_stringIT_T0_T1_EEOS8_PKS5_(ptr dead_on_unwind writable sret(%"class.std::__cxx11::basic_string") align 8 %8, ptr noundef nonnull align 8 dereferenceable(32) %9, ptr noundef %25)
          to label %26 unwind label %33

26:                                               ; preds = %24
  invoke void @_ZStplIcSt11char_traitsIcESaIcEENSt7__cxx1112basic_stringIT_T0_T1_EEOS8_PKS5_(ptr dead_on_unwind writable sret(%"class.std::__cxx11::basic_string") align 8 %7, ptr noundef nonnull align 8 dereferenceable(32) %8, ptr noundef @.str.116)
          to label %27 unwind label %37

27:                                               ; preds = %26
  invoke void @_ZN16DeformationModel16ParsingExceptionC2ERKNSt7__cxx1112basic_stringIcSt11char_traitsIcESaIcEEE(ptr noundef nonnull align 8 dereferenceable(40) %23, ptr noundef nonnull align 8 dereferenceable(32) %7)
          to label %28 unwind label %41

28:                                               ; preds = %27
  store i1 false, ptr %13, align 1
  invoke void @__cxa_throw(ptr %23, ptr @_ZTIN16DeformationModel16ParsingExceptionE, ptr @_ZN16DeformationModel16ParsingExceptionD2Ev) #21
          to label %94 unwind label %41

29:                                               ; preds = %22
  %30 = landingpad { ptr, i32 }
          cleanup
  %31 = extractvalue { ptr, i32 } %30, 0
  store ptr %31, ptr %11, align 8
  %32 = extractvalue { ptr, i32 } %30, 1
  store i32 %32, ptr %12, align 4
  br label %47

33:                                               ; preds = %24
  %34 = landingpad { ptr, i32 }
          cleanup
  %35 = extractvalue { ptr, i32 } %34, 0
  store ptr %35, ptr %11, align 8
  %36 = extractvalue { ptr, i32 } %34, 1
  store i32 %36, ptr %12, align 4
  br label %46

37:                                               ; preds = %26
  %38 = landingpad { ptr, i32 }
          cleanup
  %39 = extractvalue { ptr, i32 } %38, 0
  store ptr %39, ptr %11, align 8
  %40 = extractvalue { ptr, i32 } %38, 1
  store i32 %40, ptr %12, align 4
  br label %45

41:                                               ; preds = %28, %27
  %42 = landingpad { ptr, i32 }
          cleanup
  %43 = extractvalue { ptr, i32 } %42, 0
  store ptr %43, ptr %11, align 8
  %44 = extractvalue { ptr, i32 } %42, 1
  store i32 %44, ptr %12, align 4
  call void @_ZNSt7__cxx1112basic_stringIcSt11char_traitsIcESaIcEED1Ev(ptr noundef nonnull align 8 dereferenceable(32) %7) #5
  br label %45

45:                                               ; preds = %41, %37
  call void @_ZNSt7__cxx1112basic_stringIcSt11char_traitsIcESaIcEED1Ev(ptr noundef nonnull align 8 dereferenceable(32) %8) #5
  br label %46

46:                                               ; preds = %45, %33
  call void @_ZNSt7__cxx1112basic_stringIcSt11char_traitsIcESaIcEED1Ev(ptr noundef nonnull align 8 dereferenceable(32) %9) #5
  br label %47

47:                                               ; preds = %46, %29
  call void @_ZNSaIcED1Ev(ptr noundef nonnull align 1 dereferenceable(1) %10) #5
  %48 = load i1, ptr %13, align 1
  br i1 %48, label %49, label %50

49:                                               ; preds = %47
  call void @__cxa_free_exception(ptr %23) #5
  br label %50

50:                                               ; preds = %49, %47
  br label %89

51:                                               ; preds = %3
  store i1 false, ptr %14, align 1
  %52 = load ptr, ptr %5, align 8
  %53 = load ptr, ptr %6, align 8
  %54 = call noundef nonnull align 8 dereferenceable(16) ptr @_ZNK8nlohmann10basic_jsonISt3mapSt6vectorNSt7__cxx1112basic_stringIcSt11char_traitsIcESaIcEEEblmdSaNS_14adl_serializerES2_IhSaIhEEEixIKcEERKSC_PT_(ptr noundef nonnull align 8 dereferenceable(16) %52, ptr noundef %53)
  call void @_ZN8nlohmann10basic_jsonISt3mapSt6vectorNSt7__cxx1112basic_stringIcSt11char_traitsIcESaIcEEEblmdSaNS_14adl_serializerES2_IhSaIhEEEC2ERKSC_(ptr noundef nonnull align 8 dereferenceable(16) %0, ptr noundef nonnull align 8 dereferenceable(16) %54)
  %55 = call noundef zeroext i1 @_ZNK8nlohmann10basic_jsonISt3mapSt6vectorNSt7__cxx1112basic_stringIcSt11char_traitsIcESaIcEEEblmdSaNS_14adl_serializerES2_IhSaIhEEE9is_objectEv(ptr noundef nonnull align 8 dereferenceable(16) %0) #5
  br i1 %55, label %85, label %56

56:                                               ; preds = %51
  store i1 true, ptr %19, align 1
  %57 = call ptr @__cxa_allocate_exception(i64 40) #5
  call void @_ZNSaIcEC1Ev(ptr noundef nonnull align 1 dereferenceable(1) %18) #5
  invoke void @_ZNSt7__cxx1112basic_stringIcSt11char_traitsIcESaIcEEC1EPKcRKS3_(ptr noundef nonnull align 8 dereferenceable(32) %17, ptr noundef @.str.117, ptr noundef nonnull align 1 dereferenceable(1) %18)
          to label %58 unwind label %63

58:                                               ; preds = %56
  %59 = load ptr, ptr %6, align 8
  invoke void @_ZStplIcSt11char_traitsIcESaIcEENSt7__cxx1112basic_stringIT_T0_T1_EEOS8_PKS5_(ptr dead_on_unwind writable sret(%"class.std::__cxx11::basic_string") align 8 %16, ptr noundef nonnull align 8 dereferenceable(32) %17, ptr noundef %59)
          to label %60 unwind label %67

60:                                               ; preds = %58
  invoke void @_ZStplIcSt11char_traitsIcESaIcEENSt7__cxx1112basic_stringIT_T0_T1_EEOS8_PKS5_(ptr dead_on_unwind writable sret(%"class.std::__cxx11::basic_string") align 8 %15, ptr noundef nonnull align 8 dereferenceable(32) %16, ptr noundef @.str.134)
          to label %61 unwind label %71

61:                                               ; preds = %60
  invoke void @_ZN16DeformationModel16ParsingExceptionC2ERKNSt7__cxx1112basic_stringIcSt11char_traitsIcESaIcEEE(ptr noundef nonnull align 8 dereferenceable(40) %57, ptr noundef nonnull align 8 dereferenceable(32) %15)
          to label %62 unwind label %75

62:                                               ; preds = %61
  store i1 false, ptr %19, align 1
  invoke void @__cxa_throw(ptr %57, ptr @_ZTIN16DeformationModel16ParsingExceptionE, ptr @_ZN16DeformationModel16ParsingExceptionD2Ev) #21
          to label %94 unwind label %75

63:                                               ; preds = %56
  %64 = landingpad { ptr, i32 }
          cleanup
  %65 = extractvalue { ptr, i32 } %64, 0
  store ptr %65, ptr %11, align 8
  %66 = extractvalue { ptr, i32 } %64, 1
  store i32 %66, ptr %12, align 4
  br label %81

67:                                               ; preds = %58
  %68 = landingpad { ptr, i32 }
          cleanup
  %69 = extractvalue { ptr, i32 } %68, 0
  store ptr %69, ptr %11, align 8
  %70 = extractvalue { ptr, i32 } %68, 1
  store i32 %70, ptr %12, align 4
  br label %80

71:                                               ; preds = %60
  %72 = landingpad { ptr, i32 }
          cleanup
  %73 = extractvalue { ptr, i32 } %72, 0
  store ptr %73, ptr %11, align 8
  %74 = extractvalue { ptr, i32 } %72, 1
  store i32 %74, ptr %12, align 4
  br label %79

75:                                               ; preds = %62, %61
  %76 = landingpad { ptr, i32 }
          cleanup
  %77 = extractvalue { ptr, i32 } %76, 0
  store ptr %77, ptr %11, align 8
  %78 = extractvalue { ptr, i32 } %76, 1
  store i32 %78, ptr %12, align 4
  call void @_ZNSt7__cxx1112basic_stringIcSt11char_traitsIcESaIcEED1Ev(ptr noundef nonnull align 8 dereferenceable(32) %15) #5
  br label %79

79:                                               ; preds = %75, %71
  call void @_ZNSt7__cxx1112basic_stringIcSt11char_traitsIcESaIcEED1Ev(ptr noundef nonnull align 8 dereferenceable(32) %16) #5
  br label %80

80:                                               ; preds = %79, %67
  call void @_ZNSt7__cxx1112basic_stringIcSt11char_traitsIcESaIcEED1Ev(ptr noundef nonnull align 8 dereferenceable(32) %17) #5
  br label %81

81:                                               ; preds = %80, %63
  call void @_ZNSaIcED1Ev(ptr noundef nonnull align 1 dereferenceable(1) %18) #5
  %82 = load i1, ptr %19, align 1
  br i1 %82, label %83, label %84

83:                                               ; preds = %81
  call void @__cxa_free_exception(ptr %57) #5
  br label %84

84:                                               ; preds = %83, %81
  call void @_ZN8nlohmann10basic_jsonISt3mapSt6vectorNSt7__cxx1112basic_stringIcSt11char_traitsIcESaIcEEEblmdSaNS_14adl_serializerES2_IhSaIhEEED2Ev(ptr noundef nonnull align 8 dereferenceable(16) %0) #5
  br label %89

85:                                               ; preds = %51
  store i1 true, ptr %14, align 1
  %86 = load i1, ptr %14, align 1
  br i1 %86, label %88, label %87

87:                                               ; preds = %85
  call void @_ZN8nlohmann10basic_jsonISt3mapSt6vectorNSt7__cxx1112basic_stringIcSt11char_traitsIcESaIcEEEblmdSaNS_14adl_serializerES2_IhSaIhEEED2Ev(ptr noundef nonnull align 8 dereferenceable(16) %0) #5
  br label %88

88:                                               ; preds = %87, %85
  ret void

89:                                               ; preds = %84, %50
  %90 = load ptr, ptr %11, align 8
  %91 = load i32, ptr %12, align 4
  %92 = insertvalue { ptr, i32 } poison, ptr %90, 0
  %93 = insertvalue { ptr, i32 } %92, i32 %91, 1
  resume { ptr, i32 } %93

94:                                               ; preds = %62, %28
  unreachable
}