; Function Attrs: mustprogress uwtable
define internal fastcc void @_ZN16DeformationModelL15getObjectMemberERKN8nlohmann10basic_jsonISt3mapSt6vectorNSt7__cxx1112basic_stringIcSt11char_traitsIcESaIcEEEblmdSaNS0_14adl_serializerES3_IhSaIhEEEEPKc(ptr dead_on_unwind noalias writable align 8 %0, ptr noundef nonnull align 8 dereferenceable(16) %1, ptr noundef %2) unnamed_addr #6 personality ptr @__gxx_personality_v0 {
  %4 = alloca ptr, align 8
  %5 = alloca %"class.std::__cxx11::basic_string", align 8
  %6 = alloca %"class.std::__cxx11::basic_string", align 8
  %7 = alloca %"class.std::__cxx11::basic_string", align 8
  %8 = alloca %"class.std::allocator", align 1
  %9 = alloca %"class.std::__cxx11::basic_string", align 8
  %10 = alloca %"class.std::__cxx11::basic_string", align 8
  %11 = alloca %"class.std::__cxx11::basic_string", align 8
  %12 = alloca %"class.std::allocator", align 1
  store ptr %2, ptr %4, align 8
  %13 = call noundef zeroext i1 @_ZNK8nlohmann10basic_jsonISt3mapSt6vectorNSt7__cxx1112basic_stringIcSt11char_traitsIcESaIcEEEblmdSaNS_14adl_serializerES2_IhSaIhEEE8containsIRPKcTnNSt9enable_ifIXntsr3std7is_sameINSt5decayIT_E4typeENS_12json_pointerISC_EEEE5valueEiE4typeELi0EEEbOSJ_(ptr noundef nonnull align 8 dereferenceable(16) %1, ptr noundef nonnull align 8 dereferenceable(8) %4)
  br i1 %13, label %33, label %14

14:                                               ; preds = %3
  %15 = call ptr @__cxa_allocate_exception(i64 40) #29
  call void @_ZNSaIcEC1Ev(ptr noundef nonnull align 1 dereferenceable(1) %8) #29
  invoke void @_ZNSt7__cxx1112basic_stringIcSt11char_traitsIcESaIcEEC1EPKcRKS3_(ptr noundef nonnull align 8 dereferenceable(32) %7, ptr noundef nonnull @.str.115, ptr noundef nonnull align 1 dereferenceable(1) %8)
          to label %16 unwind label %.thread

16:                                               ; preds = %14
  %17 = load ptr, ptr %4, align 8
  %18 = invoke noundef nonnull align 8 dereferenceable(32) ptr @_ZNSt7__cxx1112basic_stringIcSt11char_traitsIcESaIcEE6appendEPKc(ptr noundef nonnull align 8 dereferenceable(32) %7, ptr noundef %17)
          to label %19 unwind label %24

19:                                               ; preds = %16
  call void @_ZNSt7__cxx1112basic_stringIcSt11char_traitsIcESaIcEEC1EOS4_(ptr noundef nonnull align 8 dereferenceable(32) %6, ptr noundef nonnull align 8 dereferenceable(32) %18) #29
  %20 = invoke noundef nonnull align 8 dereferenceable(32) ptr @_ZNSt7__cxx1112basic_stringIcSt11char_traitsIcESaIcEE6appendEPKc(ptr noundef nonnull align 8 dereferenceable(32) %6, ptr noundef nonnull @.str.116)
          to label %21 unwind label %26

21:                                               ; preds = %19
  call void @_ZNSt7__cxx1112basic_stringIcSt11char_traitsIcESaIcEEC1EOS4_(ptr noundef nonnull align 8 dereferenceable(32) %5, ptr noundef nonnull align 8 dereferenceable(32) %20) #29
  invoke void @_ZN16DeformationModel16ParsingExceptionC2ERKNSt7__cxx1112basic_stringIcSt11char_traitsIcESaIcEEE(ptr noundef nonnull align 8 dereferenceable(40) %15, ptr noundef nonnull align 8 dereferenceable(32) %5)
          to label %22 unwind label %28

22:                                               ; preds = %21
  invoke void @__cxa_throw(ptr nonnull %15, ptr nonnull @_ZTIN16DeformationModel16ParsingExceptionE, ptr nonnull @_ZN16DeformationModel16ParsingExceptionD2Ev) #31
          to label %60 unwind label %28

.thread:                                          ; preds = %14
  %23 = landingpad { ptr, i32 }
          cleanup
  call void @_ZNSaIcED1Ev(ptr noundef nonnull align 1 dereferenceable(1) %8) #29
  br label %32

24:                                               ; preds = %16
  %25 = landingpad { ptr, i32 }
          cleanup
  br label %31

26:                                               ; preds = %19
  %27 = landingpad { ptr, i32 }
          cleanup
  br label %30

28:                                               ; preds = %22, %21
  %.06 = phi i1 [ false, %22 ], [ true, %21 ]
  %29 = landingpad { ptr, i32 }
          cleanup
  call void @_ZNSt7__cxx1112basic_stringIcSt11char_traitsIcESaIcEED1Ev(ptr noundef nonnull align 8 dereferenceable(32) %5) #29
  br label %30

30:                                               ; preds = %28, %26
  %.pn = phi { ptr, i32 } [ %29, %28 ], [ %27, %26 ]
  %.17 = phi i1 [ %.06, %28 ], [ true, %26 ]
  call void @_ZNSt7__cxx1112basic_stringIcSt11char_traitsIcESaIcEED1Ev(ptr noundef nonnull align 8 dereferenceable(32) %6) #29
  br label %31

31:                                               ; preds = %24, %30
  %.pn.pn = phi { ptr, i32 } [ %.pn, %30 ], [ %25, %24 ]
  %.28 = phi i1 [ %.17, %30 ], [ true, %24 ]
  call void @_ZNSt7__cxx1112basic_stringIcSt11char_traitsIcESaIcEED1Ev(ptr noundef nonnull align 8 dereferenceable(32) %7) #29
  call void @_ZNSaIcED1Ev(ptr noundef nonnull align 1 dereferenceable(1) %8) #29
  br i1 %.28, label %32, label %59

32:                                               ; preds = %.thread, %31
  %.pn.pn.pn34 = phi { ptr, i32 } [ %23, %.thread ], [ %.pn.pn, %31 ]
  call void @__cxa_free_exception(ptr %15) #29
  br label %59

33:                                               ; preds = %3
  %34 = load ptr, ptr %4, align 8
  %35 = call noundef nonnull align 8 dereferenceable(16) ptr @_ZNK8nlohmann10basic_jsonISt3mapSt6vectorNSt7__cxx1112basic_stringIcSt11char_traitsIcESaIcEEEblmdSaNS_14adl_serializerES2_IhSaIhEEEixIKcEERKSC_PT_(ptr noundef nonnull align 8 dereferenceable(16) %1, ptr noundef %34)
  call void @_ZN8nlohmann10basic_jsonISt3mapSt6vectorNSt7__cxx1112basic_stringIcSt11char_traitsIcESaIcEEEblmdSaNS_14adl_serializerES2_IhSaIhEEEC2ERKSC_(ptr noundef nonnull align 8 dereferenceable(16) %0, ptr noundef nonnull align 8 dereferenceable(16) %35)
  %36 = load i8, ptr %0, align 8
  %37 = icmp eq i8 %36, 1
  br i1 %37, label %58, label %38

38:                                               ; preds = %33
  %39 = call ptr @__cxa_allocate_exception(i64 40) #29
  call void @_ZNSaIcEC1Ev(ptr noundef nonnull align 1 dereferenceable(1) %12) #29
  invoke void @_ZNSt7__cxx1112basic_stringIcSt11char_traitsIcESaIcEEC1EPKcRKS3_(ptr noundef nonnull align 8 dereferenceable(32) %11, ptr noundef nonnull @.str.117, ptr noundef nonnull align 1 dereferenceable(1) %12)
          to label %40 unwind label %.thread35

40:                                               ; preds = %38
  %41 = load ptr, ptr %4, align 8
  %42 = invoke noundef nonnull align 8 dereferenceable(32) ptr @_ZNSt7__cxx1112basic_stringIcSt11char_traitsIcESaIcEE6appendEPKc(ptr noundef nonnull align 8 dereferenceable(32) %11, ptr noundef %41)
          to label %43 unwind label %48

43:                                               ; preds = %40
  call void @_ZNSt7__cxx1112basic_stringIcSt11char_traitsIcESaIcEEC1EOS4_(ptr noundef nonnull align 8 dereferenceable(32) %10, ptr noundef nonnull align 8 dereferenceable(32) %42) #29
  %44 = invoke noundef nonnull align 8 dereferenceable(32) ptr @_ZNSt7__cxx1112basic_stringIcSt11char_traitsIcESaIcEE6appendEPKc(ptr noundef nonnull align 8 dereferenceable(32) %10, ptr noundef nonnull @.str.134)
          to label %45 unwind label %50

45:                                               ; preds = %43
  call void @_ZNSt7__cxx1112basic_stringIcSt11char_traitsIcESaIcEEC1EOS4_(ptr noundef nonnull align 8 dereferenceable(32) %9, ptr noundef nonnull align 8 dereferenceable(32) %44) #29
  invoke void @_ZN16DeformationModel16ParsingExceptionC2ERKNSt7__cxx1112basic_stringIcSt11char_traitsIcESaIcEEE(ptr noundef nonnull align 8 dereferenceable(40) %39, ptr noundef nonnull align 8 dereferenceable(32) %9)
          to label %46 unwind label %52

46:                                               ; preds = %45
  invoke void @__cxa_throw(ptr nonnull %39, ptr nonnull @_ZTIN16DeformationModel16ParsingExceptionE, ptr nonnull @_ZN16DeformationModel16ParsingExceptionD2Ev) #31
          to label %60 unwind label %52

.thread35:                                        ; preds = %38
  %47 = landingpad { ptr, i32 }
          cleanup
  call void @_ZNSaIcED1Ev(ptr noundef nonnull align 1 dereferenceable(1) %12) #29
  br label %56

48:                                               ; preds = %40
  %49 = landingpad { ptr, i32 }
          cleanup
  br label %55

50:                                               ; preds = %43
  %51 = landingpad { ptr, i32 }
          cleanup
  br label %54

52:                                               ; preds = %46, %45
  %.0 = phi i1 [ false, %46 ], [ true, %45 ]
  %53 = landingpad { ptr, i32 }
          cleanup
  call void @_ZNSt7__cxx1112basic_stringIcSt11char_traitsIcESaIcEED1Ev(ptr noundef nonnull align 8 dereferenceable(32) %9) #29
  br label %54

54:                                               ; preds = %52, %50
  %.pn24 = phi { ptr, i32 } [ %53, %52 ], [ %51, %50 ]
  %.1 = phi i1 [ %.0, %52 ], [ true, %50 ]
  call void @_ZNSt7__cxx1112basic_stringIcSt11char_traitsIcESaIcEED1Ev(ptr noundef nonnull align 8 dereferenceable(32) %10) #29
  br label %55

55:                                               ; preds = %48, %54
  %.pn24.pn = phi { ptr, i32 } [ %.pn24, %54 ], [ %49, %48 ]
  %.2 = phi i1 [ %.1, %54 ], [ true, %48 ]
  call void @_ZNSt7__cxx1112basic_stringIcSt11char_traitsIcESaIcEED1Ev(ptr noundef nonnull align 8 dereferenceable(32) %11) #29
  call void @_ZNSaIcED1Ev(ptr noundef nonnull align 1 dereferenceable(1) %12) #29
  br i1 %.2, label %56, label %57

56:                                               ; preds = %.thread35, %55
  %.pn24.pn.pn39 = phi { ptr, i32 } [ %47, %.thread35 ], [ %.pn24.pn, %55 ]
  call void @__cxa_free_exception(ptr %39) #29
  br label %57

57:                                               ; preds = %56, %55
  %.pn24.pn.pn38 = phi { ptr, i32 } [ %.pn24.pn.pn39, %56 ], [ %.pn24.pn, %55 ]
  call void @_ZN8nlohmann10basic_jsonISt3mapSt6vectorNSt7__cxx1112basic_stringIcSt11char_traitsIcESaIcEEEblmdSaNS_14adl_serializerES2_IhSaIhEEED2Ev(ptr noundef nonnull align 8 dereferenceable(16) %0) #29
  br label %59

58:                                               ; preds = %33
  ret void

59:                                               ; preds = %31, %32, %57
  %.pn24.pn.pn.pn = phi { ptr, i32 } [ %.pn24.pn.pn38, %57 ], [ %.pn.pn.pn34, %32 ], [ %.pn.pn, %31 ]
  resume { ptr, i32 } %.pn24.pn.pn.pn

60:                                               ; preds = %46, %22
  unreachable
}